target datalayout = "e-m:e-p270:32:32-p271:32:32-p272:64:64-i64:64-i128:128-f80:128-n8:16:32:64-S128"
target triple = "x86_64-pc-linux-gnu"

%struct.ref_entry = type { i8, %union.anon, [0 x i8] }
%union.anon = type { %struct.ref_value }
%struct.ref_value = type { %struct.object_id, ptr }
%struct.object_id = type { [32 x i8], i32 }

@.str.4 = private unnamed_addr constant [27 x i8] c"size_t overflow: %lu + %lu\00", align 1

; Function Attrs: inlinehint nounwind uwtable
define internal ptr @xstrdup_or_null(ptr noundef %0) #2 {
  %2 = alloca ptr, align 8
  store ptr %0, ptr %2, align 8, !tbaa !27
  %3 = load ptr, ptr %2, align 8, !tbaa !27
  %4 = icmp ne ptr %3, null
  br i1 %4, label %5, label %8

5:                                                ; preds = %1
  %6 = load ptr, ptr %2, align 8, !tbaa !27
  %7 = call ptr @xstrdup(ptr noundef %6)
  br label %9

8:                                                ; preds = %1
  br label %9

9:                                                ; preds = %8, %5
  %10 = phi ptr [ %7, %5 ], [ null, %8 ]
  ret ptr %10
}

; Function Attrs: inlinehint nounwind uwtable
define internal void @oidcpy(ptr noundef %0, ptr noundef %1) #2 {
  %3 = alloca ptr, align 8
  %4 = alloca ptr, align 8
  store ptr %0, ptr %3, align 8, !tbaa !29
  store ptr %1, ptr %4, align 8, !tbaa !29
  %5 = load ptr, ptr %3, align 8, !tbaa !29
  %6 = getelementptr inbounds nuw %struct.object_id, ptr %5, i32 0, i32 0
  %7 = getelementptr inbounds [32 x i8], ptr %6, i64 0, i64 0
  %8 = load ptr, ptr %4, align 8, !tbaa !29
  %9 = getelementptr inbounds nuw %struct.object_id, ptr %8, i32 0, i32 0
  %10 = getelementptr inbounds [32 x i8], ptr %9, i64 0, i64 0
  call void @llvm.memcpy.p0.p0.i64(ptr align 4 %7, ptr align 4 %10, i64 32, i1 false)
  %11 = load ptr, ptr %4, align 8, !tbaa !29
  %12 = getelementptr inbounds nuw %struct.object_id, ptr %11, i32 0, i32 1
  %13 = load i32, ptr %12, align 4, !tbaa !32
  %14 = load ptr, ptr %3, align 8, !tbaa !29
  %15 = getelementptr inbounds nuw %struct.object_id, ptr %14, i32 0, i32 1
  store i32 %13, ptr %15, align 4, !tbaa !32
  ret void
}

; Function Attrs: inlinehint nounwind uwtable
define internal i64 @st_add(i64 noundef %0, i64 noundef %1) #2 {
  %3 = alloca i64, align 8
  %4 = alloca i64, align 8
  store i64 %0, ptr %3, align 8, !tbaa !19
  store i64 %1, ptr %4, align 8, !tbaa !19
  %5 = load i64, ptr %4, align 8, !tbaa !19
  %6 = load i64, ptr %3, align 8, !tbaa !19
  %7 = sub i64 -1, %6
  %8 = icmp ugt i64 %5, %7
  br i1 %8, label %9, label %12

9:                                                ; preds = %2
  %10 = load i64, ptr %3, align 8, !tbaa !19
  %11 = load i64, ptr %4, align 8, !tbaa !19
  call void (ptr, ...) @die(ptr noundef @.str.4, i64 noundef %10, i64 noundef %11) #9
  unreachable

12:                                               ; preds = %2
  %13 = load i64, ptr %3, align 8, !tbaa !19
  %14 = load i64, ptr %4, align 8, !tbaa !19
  %15 = add i64 %13, %14
  ret i64 %15
}

; Function Attrs: nounwind uwtable
define dso_local ptr @create_ref_entry(ptr noundef %0, ptr noundef %1, ptr noundef %2, i32 noundef %3) #0 {
  %5 = alloca ptr, align 8
  %6 = alloca ptr, align 8
  %7 = alloca ptr, align 8
  %8 = alloca i32, align 4
  %9 = alloca ptr, align 8
  %10 = alloca i64, align 8
  store ptr %0, ptr %5, align 8, !tbaa !27
  store ptr %1, ptr %6, align 8, !tbaa !27
  store ptr %2, ptr %7, align 8, !tbaa !29
  store i32 %3, ptr %8, align 4, !tbaa !31
  call void @llvm.lifetime.start.p0(i64 8, ptr %9) #10
  br label %11

11:                                               ; preds = %4
  call void @llvm.lifetime.start.p0(i64 8, ptr %10) #10
  %12 = load ptr, ptr %5, align 8, !tbaa !27
  %13 = call i64 @strlen(ptr noundef %12) #8
  store i64 %13, ptr %10, align 8, !tbaa !19
  %14 = load i64, ptr %10, align 8, !tbaa !19
  %15 = call i64 @st_add(i64 noundef 56, i64 noundef %14)
  %16 = call i64 @st_add(i64 noundef %15, i64 noundef 1)
  %17 = call ptr @xcalloc(i64 noundef 1, i64 noundef %16)
  store ptr %17, ptr %9, align 8, !tbaa !9
  %18 = load ptr, ptr %9, align 8, !tbaa !9
  %19 = getelementptr inbounds nuw %struct.ref_entry, ptr %18, i32 0, i32 2
  %20 = getelementptr inbounds [0 x i8], ptr %19, i64 0, i64 0
  %21 = load ptr, ptr %5, align 8, !tbaa !27
  %22 = load i64, ptr %10, align 8, !tbaa !19
  call void @llvm.memcpy.p0.p0.i64(ptr align 8 %20, ptr align 1 %21, i64 %22, i1 false)
  call void @llvm.lifetime.end.p0(i64 8, ptr %10) #10
  br label %23

23:                                               ; preds = %11
  br label %24

24:                                               ; preds = %23
  %25 = load ptr, ptr %9, align 8, !tbaa !9
  %26 = getelementptr inbounds nuw %struct.ref_entry, ptr %25, i32 0, i32 1
  %27 = getelementptr inbounds nuw %struct.ref_value, ptr %26, i32 0, i32 0
  %28 = load ptr, ptr %7, align 8, !tbaa !29
  call void @oidcpy(ptr noundef %27, ptr noundef %28)
  %29 = load i32, ptr %8, align 4, !tbaa !31
  %30 = trunc i32 %29 to i8
  %31 = load ptr, ptr %9, align 8, !tbaa !9
  %32 = getelementptr inbounds nuw %struct.ref_entry, ptr %31, i32 0, i32 0
  store i8 %30, ptr %32, align 8, !tbaa !21
  %33 = load ptr, ptr %6, align 8, !tbaa !27
  %34 = call ptr @xstrdup_or_null(ptr noundef %33)
  %35 = load ptr, ptr %9, align 8, !tbaa !9
  %36 = getelementptr inbounds nuw %struct.ref_entry, ptr %35, i32 0, i32 1
  %37 = getelementptr inbounds nuw %struct.ref_value, ptr %36, i32 0, i32 1
  store ptr %34, ptr %37, align 8, !tbaa !21
  %38 = load ptr, ptr %9, align 8, !tbaa !9
  call void @llvm.lifetime.end.p0(i64 8, ptr %9) #10
  ret ptr %38
}