; Function Attrs: nounwind uwtable
define dso_local noundef ptr @create_ref_entry(ptr noundef readonly captures(none) %0, ptr noundef %1, ptr noundef readonly captures(none) %2, i32 noundef %3) local_unnamed_addr #0 {
  %5 = tail call i64 @strlen(ptr noundef nonnull dereferenceable(1) %0) #12
  %6 = icmp ugt i64 %5, -57
  br i1 %6, label %7, label %st_add.exit

7:                                                ; preds = %4
  tail call void (ptr, ...) @die(ptr noundef nonnull @.str.4, i64 noundef 56, i64 noundef %5) #10
  unreachable

st_add.exit:                                      ; preds = %4
  %8 = icmp eq i64 %5, -57
  br i1 %8, label %9, label %st_add.exit11

9:                                                ; preds = %st_add.exit
  tail call void (ptr, ...) @die(ptr noundef nonnull @.str.4, i64 noundef -1, i64 noundef 1) #10
  unreachable

st_add.exit11:                                    ; preds = %st_add.exit
  %10 = add nuw i64 %5, 57
  %11 = tail call ptr @xcalloc(i64 noundef 1, i64 noundef %10) #11
  %12 = getelementptr inbounds nuw i8, ptr %11, i64 56
  tail call void @llvm.memcpy.p0.p0.i64(ptr nonnull align 8 %12, ptr nonnull align 1 %0, i64 %5, i1 false)
  %13 = getelementptr inbounds nuw i8, ptr %11, i64 8
  tail call void @llvm.memcpy.p0.p0.i64(ptr noundef nonnull align 4 dereferenceable(32) %13, ptr noundef nonnull readonly align 4 dereferenceable(32) %2, i64 32, i1 false)
  %14 = getelementptr inbounds nuw i8, ptr %2, i64 32
  %15 = load i32, ptr %14, align 4, !tbaa !23
  %16 = getelementptr inbounds nuw i8, ptr %11, i64 40
  store i32 %15, ptr %16, align 4, !tbaa !23
  %17 = trunc i32 %3 to i8
  store i8 %17, ptr %11, align 8, !tbaa !17
  %.not.i = icmp eq ptr %1, null
  br i1 %.not.i, label %xstrdup_or_null.exit, label %18

18:                                               ; preds = %st_add.exit11
  %19 = tail call ptr @xstrdup(ptr noundef nonnull %1) #11
  br label %xstrdup_or_null.exit

xstrdup_or_null.exit:                             ; preds = %st_add.exit11, %18
  %20 = phi ptr [ %19, %18 ], [ null, %st_add.exit11 ]
  %21 = getelementptr inbounds nuw i8, ptr %11, i64 48
  store ptr %20, ptr %21, align 8, !tbaa !17
  ret ptr %11
}